target datalayout = "e-m:e-p270:32:32-p271:32:32-p272:64:64-i64:64-i128:128-f80:128-n8:16:32:64-S128"
target triple = "x86_64-pc-linux-gnu"

%"class.doctest::String" = type { %union.anon.7 }
%union.anon.7 = type { %"struct.doctest::String::view", [8 x i8] }
%"struct.doctest::String::view" = type { ptr, i32, i32 }

; Function Attrs: mustprogress nounwind uwtable
define linkonce_odr dso_local noundef zeroext i1 @_ZNK7doctest6String9isOnStackEv(ptr noundef nonnull align 8 dereferenceable(24) %0) #1 comdat align 2 {
  %2 = alloca ptr, align 8
  store ptr %0, ptr %2, align 8, !tbaa !59
  %3 = load ptr, ptr %2, align 8
  %4 = getelementptr inbounds nuw %"class.doctest::String", ptr %3, i32 0, i32 0
  %5 = getelementptr inbounds nuw [24 x i8], ptr %4, i64 0, i64 23
  %6 = load i8, ptr %5, align 1, !tbaa !55
  %7 = sext i8 %6 to i32
  %8 = and i32 %7, 128
  %9 = icmp eq i32 %8, 0
  ret i1 %9
}

; Function Attrs: mustprogress nounwind uwtable
define dso_local noundef i32 @_ZNK7doctest6String4sizeEv(ptr noundef nonnull align 8 dereferenceable(24) %0) #1 align 2 {
  %2 = alloca i32, align 4
  %3 = alloca ptr, align 8
  store ptr %0, ptr %3, align 8, !tbaa !59
  %4 = load ptr, ptr %3, align 8
  %5 = call noundef zeroext i1 @_ZNK7doctest6String9isOnStackEv(ptr noundef nonnull align 8 dereferenceable(24) %4) #7
  br i1 %5, label %6, label %13

6:                                                ; preds = %1
  %7 = getelementptr inbounds nuw %"class.doctest::String", ptr %4, i32 0, i32 0
  %8 = getelementptr inbounds nuw [24 x i8], ptr %7, i64 0, i64 23
  %9 = load i8, ptr %8, align 1, !tbaa !55
  %10 = sext i8 %9 to i32
  %11 = and i32 %10, 31
  %12 = sub i32 23, %11
  store i32 %12, ptr %2, align 4
  br label %17

13:                                               ; preds = %1
  %14 = getelementptr inbounds nuw %"class.doctest::String", ptr %4, i32 0, i32 0
  %15 = getelementptr inbounds nuw %"struct.doctest::String::view", ptr %14, i32 0, i32 1
  %16 = load i32, ptr %15, align 8, !tbaa !55
  store i32 %16, ptr %2, align 4
  br label %17

17:                                               ; preds = %13, %6
  %18 = load i32, ptr %2, align 4
  ret i32 %18
}